; Function Attrs: nounwind uwtable
define internal fastcc void @singlesocket(ptr noundef %0, ptr noundef %1) unnamed_addr #0 {
  %3 = alloca %struct.easy_pollset, align 4
  call void @llvm.lifetime.start.p0(i64 32, ptr nonnull %3) #19
  call fastcc void @multi_getsock(ptr noundef %1, ptr noundef nonnull %3)
  %4 = getelementptr inbounds nuw i8, ptr %1, i64 160
  %5 = call i32 @Curl_multi_pollset_ev(ptr noundef %0, ptr noundef %1, ptr noundef nonnull %3, ptr noundef nonnull %4)
  %.not = icmp eq i32 %5, 0
  br i1 %.not, label %6, label %7

6:                                                ; preds = %2
  call void @llvm.memcpy.p0.p0.i64(ptr noundef nonnull align 8 dereferenceable(32) %4, ptr noundef nonnull align 4 dereferenceable(32) %3, i64 32, i1 false)
  br label %7

7:                                                ; preds = %6, %2
  call void @llvm.lifetime.end.p0(i64 32, ptr nonnull %3) #19
  ret void
}